target datalayout = "e-m:e-p270:32:32-p271:32:32-p272:64:64-i64:64-i128:128-f80:128-n8:16:32:64-S128"
target triple = "x86_64-pc-linux-gnu"

%struct.AVChapter = type { i64, %struct.AVRational, i64, i64, ptr }
%struct.AVRational = type { i32, i32 }
%struct.AVDictionaryEntry = type { ptr, ptr }

@.str.8 = private unnamed_addr constant [6 x i8] c"title\00", align 1

; Function Attrs: nounwind uwtable
define i64 @ff_vorbiscomment_length(ptr noundef %0, ptr noundef %1, ptr noundef %2, i32 noundef %3) #0 {
  %5 = alloca ptr, align 8
  %6 = alloca ptr, align 8
  %7 = alloca ptr, align 8
  %8 = alloca i32, align 4
  %9 = alloca i64, align 8
  %10 = alloca i32, align 4
  %11 = alloca ptr, align 8
  %12 = alloca i64, align 8
  %13 = alloca ptr, align 8
  store ptr %0, ptr %5, align 8, !tbaa !4
  store ptr %1, ptr %6, align 8, !tbaa !9
  store ptr %2, ptr %7, align 8, !tbaa !11
  store i32 %3, ptr %8, align 4, !tbaa !14
  call void @llvm.lifetime.start.p0(i64 8, ptr %9) #7
  store i64 8, ptr %9, align 8, !tbaa !16
  %14 = load ptr, ptr %6, align 8, !tbaa !9
  %15 = call i64 @strlen(ptr noundef %14) #8
  %16 = load i64, ptr %9, align 8, !tbaa !16
  %17 = add i64 %16, %15
  store i64 %17, ptr %9, align 8, !tbaa !16
  %18 = load ptr, ptr %7, align 8, !tbaa !11
  %19 = icmp ne ptr %18, null
  br i1 %19, label %20, label %72

20:                                               ; preds = %4
  %21 = load i32, ptr %8, align 4, !tbaa !14
  %22 = icmp ne i32 %21, 0
  br i1 %22, label %23, label %72

23:                                               ; preds = %20
  call void @llvm.lifetime.start.p0(i64 4, ptr %10) #7
  store i32 0, ptr %10, align 4, !tbaa !14
  br label %24

24:                                               ; preds = %68, %23
  %25 = load i32, ptr %10, align 4, !tbaa !14
  %26 = load i32, ptr %8, align 4, !tbaa !14
  %27 = icmp ult i32 %25, %26
  br i1 %27, label %29, label %28

28:                                               ; preds = %24
  call void @llvm.lifetime.end.p0(i64 4, ptr %10) #7
  br label %71

29:                                               ; preds = %24
  call void @llvm.lifetime.start.p0(i64 8, ptr %11) #7
  store ptr null, ptr %11, align 8, !tbaa !18
  %30 = load i64, ptr %9, align 8, !tbaa !16
  %31 = add nsw i64 %30, 27
  store i64 %31, ptr %9, align 8, !tbaa !16
  br label %32

32:                                               ; preds = %55, %29
  %33 = load ptr, ptr %7, align 8, !tbaa !11
  %34 = load i32, ptr %10, align 4, !tbaa !14
  %35 = sext i32 %34 to i64
  %36 = getelementptr inbounds ptr, ptr %33, i64 %35
  %37 = load ptr, ptr %36, align 8, !tbaa !20
  %38 = getelementptr inbounds nuw %struct.AVChapter, ptr %37, i32 0, i32 4
  %39 = load ptr, ptr %38, align 8, !tbaa !22
  %40 = load ptr, ptr %11, align 8, !tbaa !18
  %41 = call ptr @av_dict_iterate(ptr noundef %39, ptr noundef %40)
  store ptr %41, ptr %11, align 8, !tbaa !18
  %42 = icmp ne ptr %41, null
  br i1 %42, label %43, label %67

43:                                               ; preds = %32
  call void @llvm.lifetime.start.p0(i64 8, ptr %12) #7
  %44 = load ptr, ptr %11, align 8, !tbaa !18
  %45 = getelementptr inbounds nuw %struct.AVDictionaryEntry, ptr %44, i32 0, i32 0
  %46 = load ptr, ptr %45, align 8, !tbaa !25
  %47 = call i32 @strcmp(ptr noundef %46, ptr noundef @.str.8) #8
  %48 = icmp ne i32 %47, 0
  br i1 %48, label %50, label %49

49:                                               ; preds = %43
  br label %55

50:                                               ; preds = %43
  %51 = load ptr, ptr %11, align 8, !tbaa !18
  %52 = getelementptr inbounds nuw %struct.AVDictionaryEntry, ptr %51, i32 0, i32 0
  %53 = load ptr, ptr %52, align 8, !tbaa !25
  %54 = call i64 @strlen(ptr noundef %53) #8
  br label %55

55:                                               ; preds = %50, %49
  %56 = phi i64 [ 4, %49 ], [ %54, %50 ]
  store i64 %56, ptr %12, align 8, !tbaa !16
  %57 = load i64, ptr %12, align 8, !tbaa !16
  %58 = add nsw i64 14, %57
  %59 = add nsw i64 %58, 1
  %60 = load ptr, ptr %11, align 8, !tbaa !18
  %61 = getelementptr inbounds nuw %struct.AVDictionaryEntry, ptr %60, i32 0, i32 1
  %62 = load ptr, ptr %61, align 8, !tbaa !27
  %63 = call i64 @strlen(ptr noundef %62) #8
  %64 = add i64 %59, %63
  %65 = load i64, ptr %9, align 8, !tbaa !16
  %66 = add i64 %65, %64
  store i64 %66, ptr %9, align 8, !tbaa !16
  call void @llvm.lifetime.end.p0(i64 8, ptr %12) #7
  br label %32, !llvm.loop !28

67:                                               ; preds = %32
  call void @llvm.lifetime.end.p0(i64 8, ptr %11) #7
  br label %68

68:                                               ; preds = %67
  %69 = load i32, ptr %10, align 4, !tbaa !14
  %70 = add nsw i32 %69, 1
  store i32 %70, ptr %10, align 4, !tbaa !14
  br label %24, !llvm.loop !30

71:                                               ; preds = %28
  br label %72

72:                                               ; preds = %71, %20, %4
  %73 = load ptr, ptr %5, align 8, !tbaa !4
  %74 = icmp ne ptr %73, null
  br i1 %74, label %75, label %96

75:                                               ; preds = %72
  call void @llvm.lifetime.start.p0(i64 8, ptr %13) #7
  store ptr null, ptr %13, align 8, !tbaa !18
  br label %76

76:                                               ; preds = %81, %75
  %77 = load ptr, ptr %5, align 8, !tbaa !4
  %78 = load ptr, ptr %13, align 8, !tbaa !18
  %79 = call ptr @av_dict_iterate(ptr noundef %77, ptr noundef %78)
  store ptr %79, ptr %13, align 8, !tbaa !18
  %80 = icmp ne ptr %79, null
  br i1 %80, label %81, label %95

81:                                               ; preds = %76
  %82 = load ptr, ptr %13, align 8, !tbaa !18
  %83 = getelementptr inbounds nuw %struct.AVDictionaryEntry, ptr %82, i32 0, i32 0
  %84 = load ptr, ptr %83, align 8, !tbaa !25
  %85 = call i64 @strlen(ptr noundef %84) #8
  %86 = add i64 4, %85
  %87 = add i64 %86, 1
  %88 = load ptr, ptr %13, align 8, !tbaa !18
  %89 = getelementptr inbounds nuw %struct.AVDictionaryEntry, ptr %88, i32 0, i32 1
  %90 = load ptr, ptr %89, align 8, !tbaa !27
  %91 = call i64 @strlen(ptr noundef %90) #8
  %92 = add i64 %87, %91
  %93 = load i64, ptr %9, align 8, !tbaa !16
  %94 = add i64 %93, %92
  store i64 %94, ptr %9, align 8, !tbaa !16
  br label %76, !llvm.loop !31

95:                                               ; preds = %76
  call void @llvm.lifetime.end.p0(i64 8, ptr %13) #7
  br label %96

96:                                               ; preds = %95, %72
  %97 = load i64, ptr %9, align 8, !tbaa !16
  call void @llvm.lifetime.end.p0(i64 8, ptr %9) #7
  ret i64 %97
}