; Function Attrs: nounwind uwtable
define i64 @ff_vorbiscomment_length(ptr noundef %0, ptr noundef readonly captures(none) %1, ptr noundef readonly captures(address_is_null) %2, i32 noundef %3) local_unnamed_addr #0 {
  %5 = tail call i64 @strlen(ptr noundef nonnull dereferenceable(1) %1) #6
  %6 = add i64 %5, 8
  %7 = icmp ne ptr %2, null
  %8 = icmp ne i32 %3, 0
  %or.cond = and i1 %7, %8
  br i1 %or.cond, label %.preheader34.preheader, label %.loopexit35

.preheader34.preheader:                           ; preds = %4
  %wide.trip.count = zext i32 %3 to i64
  br label %.preheader34

.preheader34:                                     ; preds = %.preheader34.preheader, %._crit_edge
  %indvars.iv = phi i64 [ 0, %.preheader34.preheader ], [ %indvars.iv.next, %._crit_edge ]
  %.139 = phi i64 [ %6, %.preheader34.preheader ], [ %.2.lcssa, %._crit_edge ]
  %9 = add nsw i64 %.139, 27
  %10 = getelementptr inbounds nuw ptr, ptr %2, i64 %indvars.iv
  %11 = load ptr, ptr %10, align 8, !tbaa !4
  %12 = getelementptr inbounds nuw i8, ptr %11, i64 32
  %13 = load ptr, ptr %12, align 8, !tbaa !9
  %14 = tail call ptr @av_dict_iterate(ptr noundef %13, ptr noundef null) #7
  %.not3236 = icmp eq ptr %14, null
  br i1 %.not3236, label %._crit_edge, label %.lr.ph

.lr.ph:                                           ; preds = %.preheader34, %21
  %15 = phi ptr [ %31, %21 ], [ %14, %.preheader34 ]
  %.237 = phi i64 [ %27, %21 ], [ %9, %.preheader34 ]
  %16 = load ptr, ptr %15, align 8, !tbaa !15
  %17 = tail call i32 @strcmp(ptr noundef nonnull dereferenceable(1) %16, ptr noundef nonnull dereferenceable(6) @.str.8) #6
  %.not33 = icmp eq i32 %17, 0
  br i1 %.not33, label %21, label %18

18:                                               ; preds = %.lr.ph
  %19 = tail call i64 @strlen(ptr noundef nonnull dereferenceable(1) %16) #6
  %20 = add nsw i64 %19, 15
  br label %21

21:                                               ; preds = %.lr.ph, %18
  %22 = phi i64 [ %20, %18 ], [ 19, %.lr.ph ]
  %23 = getelementptr inbounds nuw i8, ptr %15, i64 8
  %24 = load ptr, ptr %23, align 8, !tbaa !18
  %25 = tail call i64 @strlen(ptr noundef nonnull dereferenceable(1) %24) #6
  %26 = add i64 %22, %.237
  %27 = add i64 %26, %25
  %28 = load ptr, ptr %10, align 8, !tbaa !4
  %29 = getelementptr inbounds nuw i8, ptr %28, i64 32
  %30 = load ptr, ptr %29, align 8, !tbaa !9
  %31 = tail call ptr @av_dict_iterate(ptr noundef %30, ptr noundef nonnull %15) #7
  %.not32 = icmp eq ptr %31, null
  br i1 %.not32, label %._crit_edge, label %.lr.ph, !llvm.loop !19

._crit_edge:                                      ; preds = %21, %.preheader34
  %.2.lcssa = phi i64 [ %9, %.preheader34 ], [ %27, %21 ]
  %indvars.iv.next = add nuw nsw i64 %indvars.iv, 1
  %exitcond.not = icmp eq i64 %indvars.iv.next, %wide.trip.count
  br i1 %exitcond.not, label %.loopexit35, label %.preheader34, !llvm.loop !21

.loopexit35:                                      ; preds = %._crit_edge, %4
  %.023 = phi i64 [ %6, %4 ], [ %.2.lcssa, %._crit_edge ]
  %.not = icmp eq ptr %0, null
  br i1 %.not, label %.loopexit, label %.preheader

.preheader:                                       ; preds = %.loopexit35
  %32 = tail call ptr @av_dict_iterate(ptr noundef nonnull %0, ptr noundef null) #7
  %.not3140 = icmp eq ptr %32, null
  br i1 %.not3140, label %.loopexit, label %.lr.ph42

.lr.ph42:                                         ; preds = %.preheader, %.lr.ph42
  %33 = phi ptr [ %42, %.lr.ph42 ], [ %32, %.preheader ]
  %.441 = phi i64 [ %41, %.lr.ph42 ], [ %.023, %.preheader ]
  %34 = load ptr, ptr %33, align 8, !tbaa !15
  %35 = tail call i64 @strlen(ptr noundef nonnull dereferenceable(1) %34) #6
  %36 = getelementptr inbounds nuw i8, ptr %33, i64 8
  %37 = load ptr, ptr %36, align 8, !tbaa !18
  %38 = tail call i64 @strlen(ptr noundef nonnull dereferenceable(1) %37) #6
  %39 = add i64 %.441, 5
  %40 = add i64 %39, %35
  %41 = add i64 %40, %38
  %42 = tail call ptr @av_dict_iterate(ptr noundef nonnull %0, ptr noundef nonnull %33) #7
  %.not31 = icmp eq ptr %42, null
  br i1 %.not31, label %.loopexit, label %.lr.ph42, !llvm.loop !22

.loopexit:                                        ; preds = %.lr.ph42, %.preheader, %.loopexit35
  %.3 = phi i64 [ %.023, %.loopexit35 ], [ %.023, %.preheader ], [ %41, %.lr.ph42 ]
  ret i64 %.3
}